target datalayout = "e-m:e-p270:32:32-p271:32:32-p272:64:64-i64:64-i128:128-f80:128-n8:16:32:64-S128"
target triple = "x86_64-pc-linux-gnu"

; Function Attrs: inlinehint nounwind uwtable
define internal float @clamp_simd(float noundef %0) #2 {
  %2 = alloca float, align 4
  store float %0, ptr %2, align 4, !tbaa !45
  %3 = load float, ptr %2, align 4, !tbaa !45
  %4 = call reassoc nsz arcp contract afn float @llvm.maxnum.f32(float %3, float 0.000000e+00)
  %5 = call reassoc nsz arcp contract afn float @llvm.minnum.f32(float %4, float 1.000000e+00)
  ret float %5
}

; Function Attrs: nounwind uwtable
define internal void @_blend_screen(ptr noundef %0, ptr noundef %1, ptr noundef %2, ptr noalias noundef %3, i64 noundef %4) #0 {
  %6 = alloca ptr, align 8
  %7 = alloca ptr, align 8
  %8 = alloca ptr, align 8
  %9 = alloca ptr, align 8
  %10 = alloca i64, align 8
  %11 = alloca i64, align 8
  %12 = alloca i64, align 8
  %13 = alloca i32, align 4
  %14 = alloca float, align 4
  %15 = alloca i32, align 4
  %16 = alloca float, align 4
  %17 = alloca float, align 4
  store ptr %0, ptr %6, align 8, !tbaa !11
  store ptr %1, ptr %7, align 8, !tbaa !11
  store ptr %2, ptr %8, align 8, !tbaa !11
  store ptr %3, ptr %9, align 8, !tbaa !11
  store i64 %4, ptr %10, align 8, !tbaa !43
  call void @llvm.lifetime.start.p0(i64 8, ptr %11) #8
  store i64 0, ptr %11, align 8, !tbaa !43
  call void @llvm.lifetime.start.p0(i64 8, ptr %12) #8
  store i64 0, ptr %12, align 8, !tbaa !43
  br label %18

18:                                               ; preds = %78, %5
  %19 = load i64, ptr %11, align 8, !tbaa !43
  %20 = load i64, ptr %10, align 8, !tbaa !43
  %21 = icmp ult i64 %19, %20
  br i1 %21, label %23, label %22

22:                                               ; preds = %18
  store i32 2, ptr %13, align 4
  call void @llvm.lifetime.end.p0(i64 8, ptr %12) #8
  call void @llvm.lifetime.end.p0(i64 8, ptr %11) #8
  br label %83

23:                                               ; preds = %18
  call void @llvm.lifetime.start.p0(i64 4, ptr %14) #8
  %24 = load ptr, ptr %9, align 8, !tbaa !11
  %25 = load i64, ptr %11, align 8, !tbaa !43
  %26 = getelementptr inbounds nuw float, ptr %24, i64 %25
  %27 = load float, ptr %26, align 4, !tbaa !45
  store float %27, ptr %14, align 4, !tbaa !45
  call void @llvm.lifetime.start.p0(i64 4, ptr %15) #8
  store i32 0, ptr %15, align 4, !tbaa !36
  br label %28

28:                                               ; preds = %69, %23
  %29 = load i32, ptr %15, align 4, !tbaa !36
  %30 = icmp slt i32 %29, 3
  br i1 %30, label %32, label %31

31:                                               ; preds = %28
  store i32 5, ptr %13, align 4
  call void @llvm.lifetime.end.p0(i64 4, ptr %15) #8
  br label %72

32:                                               ; preds = %28
  call void @llvm.lifetime.start.p0(i64 4, ptr %16) #8
  %33 = load ptr, ptr %6, align 8, !tbaa !11
  %34 = load i64, ptr %12, align 8, !tbaa !43
  %35 = load i32, ptr %15, align 4, !tbaa !36
  %36 = sext i32 %35 to i64
  %37 = add i64 %34, %36
  %38 = getelementptr inbounds nuw float, ptr %33, i64 %37
  %39 = load float, ptr %38, align 4, !tbaa !45
  %40 = call reassoc nsz arcp contract afn float @clamp_simd(float noundef %39)
  store float %40, ptr %16, align 4, !tbaa !45
  call void @llvm.lifetime.start.p0(i64 4, ptr %17) #8
  %41 = load ptr, ptr %7, align 8, !tbaa !11
  %42 = load i64, ptr %12, align 8, !tbaa !43
  %43 = load i32, ptr %15, align 4, !tbaa !36
  %44 = sext i32 %43 to i64
  %45 = add i64 %42, %44
  %46 = getelementptr inbounds nuw float, ptr %41, i64 %45
  %47 = load float, ptr %46, align 4, !tbaa !45
  %48 = call reassoc nsz arcp contract afn float @clamp_simd(float noundef %47)
  store float %48, ptr %17, align 4, !tbaa !45
  %49 = load float, ptr %16, align 4, !tbaa !45
  %50 = load float, ptr %14, align 4, !tbaa !45
  %51 = fsub reassoc nsz arcp contract afn float 1.000000e+00, %50
  %52 = fmul reassoc nsz arcp contract afn float %49, %51
  %53 = load float, ptr %16, align 4, !tbaa !45
  %54 = fsub reassoc nsz arcp contract afn float 1.000000e+00, %53
  %55 = load float, ptr %17, align 4, !tbaa !45
  %56 = fsub reassoc nsz arcp contract afn float 1.000000e+00, %55
  %57 = fmul reassoc nsz arcp contract afn float %54, %56
  %58 = fsub reassoc nsz arcp contract afn float 1.000000e+00, %57
  %59 = load float, ptr %14, align 4, !tbaa !45
  %60 = fmul reassoc nsz arcp contract afn float %58, %59
  %61 = fadd reassoc nsz arcp contract afn float %52, %60
  %62 = call reassoc nsz arcp contract afn float @clamp_simd(float noundef %61)
  %63 = load ptr, ptr %8, align 8, !tbaa !11
  %64 = load i64, ptr %12, align 8, !tbaa !43
  %65 = load i32, ptr %15, align 4, !tbaa !36
  %66 = sext i32 %65 to i64
  %67 = add i64 %64, %66
  %68 = getelementptr inbounds nuw float, ptr %63, i64 %67
  store float %62, ptr %68, align 4, !tbaa !45
  call void @llvm.lifetime.end.p0(i64 4, ptr %17) #8
  call void @llvm.lifetime.end.p0(i64 4, ptr %16) #8
  br label %69

69:                                               ; preds = %32
  %70 = load i32, ptr %15, align 4, !tbaa !36
  %71 = add nsw i32 %70, 1
  store i32 %71, ptr %15, align 4, !tbaa !36
  br label %28

72:                                               ; preds = %31
  %73 = load float, ptr %14, align 4, !tbaa !45
  %74 = load ptr, ptr %8, align 8, !tbaa !11
  %75 = load i64, ptr %12, align 8, !tbaa !43
  %76 = add i64 %75, 3
  %77 = getelementptr inbounds nuw float, ptr %74, i64 %76
  store float %73, ptr %77, align 4, !tbaa !45
  call void @llvm.lifetime.end.p0(i64 4, ptr %14) #8
  br label %78

78:                                               ; preds = %72
  %79 = load i64, ptr %11, align 8, !tbaa !43
  %80 = add i64 %79, 1
  store i64 %80, ptr %11, align 8, !tbaa !43
  %81 = load i64, ptr %12, align 8, !tbaa !43
  %82 = add i64 %81, 4
  store i64 %82, ptr %12, align 8, !tbaa !43
  br label %18

83:                                               ; preds = %22
  ret void
}