; Function Attrs: nofree norecurse nosync nounwind memory(argmem: readwrite) uwtable
define internal void @_blend_screen(ptr noundef readonly captures(none) %0, ptr noundef readonly captures(none) %1, ptr noundef writeonly captures(none) %2, ptr noalias noundef readonly captures(none) %3, i64 noundef %4) unnamed_addr #10 {
  %.not = icmp eq i64 %4, 0
  br i1 %.not, label %._crit_edge, label %.lr.ph

._crit_edge:                                      ; preds = %8, %5
  ret void

.lr.ph:                                           ; preds = %5, %8
  %.030 = phi i64 [ %11, %8 ], [ 0, %5 ]
  %.02429 = phi i64 [ %12, %8 ], [ 0, %5 ]
  %6 = getelementptr inbounds nuw float, ptr %3, i64 %.030
  %7 = load float, ptr %6, align 4, !tbaa !36
  br label %13

8:                                                ; preds = %13
  %9 = or disjoint i64 %.02429, 3
  %10 = getelementptr inbounds nuw float, ptr %2, i64 %9
  store float %7, ptr %10, align 4, !tbaa !36
  %11 = add nuw i64 %.030, 1
  %12 = add i64 %.02429, 4
  %exitcond32.not = icmp eq i64 %11, %4
  br i1 %exitcond32.not, label %._crit_edge, label %.lr.ph

13:                                               ; preds = %.lr.ph, %13
  %indvars.iv = phi i64 [ 0, %.lr.ph ], [ %indvars.iv.next, %13 ]
  %14 = or disjoint i64 %.02429, %indvars.iv
  %15 = getelementptr inbounds nuw float, ptr %0, i64 %14
  %16 = load float, ptr %15, align 4, !tbaa !36
  %17 = tail call reassoc nsz arcp contract afn float @llvm.maxnum.f32(float %16, float 0.000000e+00)
  %18 = tail call reassoc nsz arcp contract afn noundef float @llvm.minnum.f32(float %17, float 1.000000e+00)
  %19 = getelementptr inbounds nuw float, ptr %1, i64 %14
  %20 = load float, ptr %19, align 4, !tbaa !36
  %21 = tail call reassoc nsz arcp contract afn float @llvm.maxnum.f32(float %20, float 0.000000e+00)
  %22 = tail call reassoc nsz arcp contract afn noundef float @llvm.minnum.f32(float %21, float 1.000000e+00)
  %23 = fsub reassoc nsz arcp contract afn float 1.000000e+00, %22
  %24 = fadd reassoc nsz arcp contract afn float %18, -1.000000e+00
  %.neg26 = fmul reassoc nsz arcp contract afn float %23, %24
  %.neg27 = fsub reassoc nsz arcp contract afn float 1.000000e+00, %18
  %25 = fadd reassoc nsz arcp contract afn float %.neg27, %.neg26
  %26 = fmul reassoc nsz arcp contract afn float %25, %7
  %27 = fadd reassoc nsz arcp contract afn float %26, %18
  %28 = tail call reassoc nsz arcp contract afn float @llvm.maxnum.f32(float %27, float 0.000000e+00)
  %29 = tail call reassoc nsz arcp contract afn noundef float @llvm.minnum.f32(float %28, float 1.000000e+00)
  %30 = getelementptr inbounds nuw float, ptr %2, i64 %14
  store float %29, ptr %30, align 4, !tbaa !36
  %indvars.iv.next = add nuw nsw i64 %indvars.iv, 1
  %exitcond.not = icmp eq i64 %indvars.iv.next, 3
  br i1 %exitcond.not, label %8, label %13
}